target datalayout = "e-m:e-p270:32:32-p271:32:32-p272:64:64-i64:64-i128:128-f80:128-n8:16:32:64-S128"
target triple = "x86_64-pc-linux-gnu"

%"struct.llvm::X86FoldTableEntry" = type { i32, i32, i16 }

; Function Attrs: mustprogress nounwind uwtable
define dso_local noundef zeroext i1 @_ZN4llvm18matchBroadcastSizeERKNS_17X86FoldTableEntryEj(ptr noundef nonnull align 4 dereferenceable(12) %0, i32 noundef %1) #0 {
  %3 = alloca i1, align 1
  %4 = alloca ptr, align 8
  %5 = alloca i32, align 4
  store ptr %0, ptr %4, align 8
  store i32 %1, ptr %5, align 4
  %6 = load ptr, ptr %4, align 8
  %7 = getelementptr inbounds nuw %"struct.llvm::X86FoldTableEntry", ptr %6, i32 0, i32 2
  %8 = load i16, ptr %7, align 4
  %9 = zext i16 %8 to i32
  %10 = and i32 %9, 7168
  switch i32 %10, label %20 [
    i32 1024, label %11
    i32 6144, label %11
    i32 2048, label %14
    i32 4096, label %14
    i32 3072, label %17
    i32 5120, label %17
  ]

11:                                               ; preds = %2, %2
  %12 = load i32, ptr %5, align 4
  %13 = icmp eq i32 %12, 16
  store i1 %13, ptr %3, align 1
  br label %21

14:                                               ; preds = %2, %2
  %15 = load i32, ptr %5, align 4
  %16 = icmp eq i32 %15, 32
  store i1 %16, ptr %3, align 1
  br label %21

17:                                               ; preds = %2, %2
  %18 = load i32, ptr %5, align 4
  %19 = icmp eq i32 %18, 64
  store i1 %19, ptr %3, align 1
  br label %21

20:                                               ; preds = %2
  store i1 false, ptr %3, align 1
  br label %21

21:                                               ; preds = %20, %17, %14, %11
  %22 = load i1, ptr %3, align 1
  ret i1 %22
}