; Function Attrs: mustprogress nofree norecurse nosync nounwind willreturn memory(argmem: read) uwtable
define dso_local noundef zeroext i1 @_ZN4llvm18matchBroadcastSizeERKNS_17X86FoldTableEntryEj(ptr nocapture noundef nonnull readonly align 4 dereferenceable(12) %0, i32 noundef %1) local_unnamed_addr #4 {
  %3 = getelementptr inbounds nuw i8, ptr %0, i64 8
  %4 = load i16, ptr %3, align 4
  %5 = and i16 %4, 7168
  %6 = zext nneg i16 %5 to i32
  %7 = add nsw i32 %6, -1024
  %8 = lshr exact i32 %7, 10
  switch i32 %8, label %15 [
    i32 0, label %9
    i32 5, label %9
    i32 1, label %11
    i32 3, label %11
    i32 2, label %13
    i32 4, label %13
  ]

9:                                                ; preds = %2, %2
  %10 = icmp eq i32 %1, 16
  br label %15

11:                                               ; preds = %2, %2
  %12 = icmp eq i32 %1, 32
  br label %15

13:                                               ; preds = %2, %2
  %14 = icmp eq i32 %1, 64
  br label %15

15:                                               ; preds = %2, %13, %11, %9
  %.0 = phi i1 [ %14, %13 ], [ %12, %11 ], [ %10, %9 ], [ false, %2 ]
  ret i1 %.0
}